target datalayout = "e-m:e-p270:32:32-p271:32:32-p272:64:64-i64:64-i128:128-f80:128-n8:16:32:64-S128"
target triple = "x86_64-pc-linux-gnu"

%struct._GString = type { ptr, i64, i64 }

@.str.115 = private unnamed_addr constant [5 x i8] c"FIS:\00", align 1
@.str.116 = private unnamed_addr constant [10 x i8] c"\0A0x%02x: \00", align 1
@.str.117 = private unnamed_addr constant [6 x i8] c"%02x \00", align 1

; Function Attrs: inlinehint nounwind sspstrong uwtable
define internal ptr @g_string_append_c_inline(ptr noundef %0, i8 noundef signext %1) #7 {
  %3 = alloca ptr, align 8
  %4 = alloca i8, align 1
  store ptr %0, ptr %3, align 8
  store i8 %1, ptr %4, align 1
  %5 = load ptr, ptr %3, align 8
  %6 = getelementptr inbounds nuw %struct._GString, ptr %5, i32 0, i32 1
  %7 = load i64, ptr %6, align 8
  %8 = add i64 %7, 1
  %9 = load ptr, ptr %3, align 8
  %10 = getelementptr inbounds nuw %struct._GString, ptr %9, i32 0, i32 2
  %11 = load i64, ptr %10, align 8
  %12 = icmp ult i64 %8, %11
  br i1 %12, label %13, label %30

13:                                               ; preds = %2
  %14 = load i8, ptr %4, align 1
  %15 = load ptr, ptr %3, align 8
  %16 = getelementptr inbounds nuw %struct._GString, ptr %15, i32 0, i32 0
  %17 = load ptr, ptr %16, align 8
  %18 = load ptr, ptr %3, align 8
  %19 = getelementptr inbounds nuw %struct._GString, ptr %18, i32 0, i32 1
  %20 = load i64, ptr %19, align 8
  %21 = add i64 %20, 1
  store i64 %21, ptr %19, align 8
  %22 = getelementptr inbounds nuw i8, ptr %17, i64 %20
  store i8 %14, ptr %22, align 1
  %23 = load ptr, ptr %3, align 8
  %24 = getelementptr inbounds nuw %struct._GString, ptr %23, i32 0, i32 0
  %25 = load ptr, ptr %24, align 8
  %26 = load ptr, ptr %3, align 8
  %27 = getelementptr inbounds nuw %struct._GString, ptr %26, i32 0, i32 1
  %28 = load i64, ptr %27, align 8
  %29 = getelementptr inbounds nuw i8, ptr %25, i64 %28
  store i8 0, ptr %29, align 1
  br label %34

30:                                               ; preds = %2
  %31 = load ptr, ptr %3, align 8
  %32 = load i8, ptr %4, align 1
  %33 = call ptr @g_string_insert_c(ptr noundef %31, i64 noundef -1, i8 noundef signext %32)
  br label %34

34:                                               ; preds = %30, %13
  %35 = load ptr, ptr %3, align 8
  ret ptr %35
}

; Function Attrs: nounwind sspstrong uwtable
define internal ptr @ahci_pretty_buffer_fis(ptr noundef %0, i32 noundef %1) #0 {
  %3 = alloca ptr, align 8
  %4 = alloca i32, align 4
  %5 = alloca i32, align 4
  %6 = alloca ptr, align 8
  store ptr %0, ptr %3, align 8
  store i32 %1, ptr %4, align 4
  call void @llvm.lifetime.start.p0(i64 4, ptr %5) #15
  store i32 0, ptr %5, align 4, !annotation !4
  call void @llvm.lifetime.start.p0(i64 8, ptr %6) #15
  %7 = call ptr @g_string_new(ptr noundef @.str.115)
  store ptr %7, ptr %6, align 8
  store i32 0, ptr %5, align 4
  br label %8

8:                                                ; preds = %27, %2
  %9 = load i32, ptr %5, align 4
  %10 = load i32, ptr %4, align 4
  %11 = icmp slt i32 %9, %10
  br i1 %11, label %12, label %30

12:                                               ; preds = %8
  %13 = load i32, ptr %5, align 4
  %14 = and i32 %13, 15
  %15 = icmp eq i32 %14, 0
  br i1 %15, label %16, label %19

16:                                               ; preds = %12
  %17 = load ptr, ptr %6, align 8
  %18 = load i32, ptr %5, align 4
  call void (ptr, ptr, ...) @g_string_append_printf(ptr noundef %17, ptr noundef @.str.116, i32 noundef %18)
  br label %19

19:                                               ; preds = %16, %12
  %20 = load ptr, ptr %6, align 8
  %21 = load ptr, ptr %3, align 8
  %22 = load i32, ptr %5, align 4
  %23 = sext i32 %22 to i64
  %24 = getelementptr inbounds i8, ptr %21, i64 %23
  %25 = load i8, ptr %24, align 1
  %26 = zext i8 %25 to i32
  call void (ptr, ptr, ...) @g_string_append_printf(ptr noundef %20, ptr noundef @.str.117, i32 noundef %26)
  br label %27

27:                                               ; preds = %19
  %28 = load i32, ptr %5, align 4
  %29 = add i32 %28, 1
  store i32 %29, ptr %5, align 4
  br label %8, !llvm.loop !20

30:                                               ; preds = %8
  %31 = load ptr, ptr %6, align 8
  %32 = call ptr @g_string_append_c_inline(ptr noundef %31, i8 noundef signext 10)
  %33 = load ptr, ptr %6, align 8
  %34 = call ptr @g_string_free(ptr noundef %33, i32 noundef 0)
  call void @llvm.lifetime.end.p0(i64 8, ptr %6) #15
  call void @llvm.lifetime.end.p0(i64 4, ptr %5) #15
  ret ptr %34
}