; Function Attrs: nounwind sspstrong uwtable
define internal fastcc ptr @ahci_pretty_buffer_fis(ptr noundef readonly captures(none) %0, i32 noundef range(i32 16, 129) %1) unnamed_addr #0 {
  %3 = tail call ptr @g_string_new(ptr noundef nonnull @.str.115) #14
  %wide.trip.count = zext nneg i32 %1 to i64
  br label %4

4:                                                ; preds = %2, %9
  %indvars.iv = phi i64 [ 0, %2 ], [ %indvars.iv.next, %9 ]
  %5 = trunc nuw nsw i64 %indvars.iv to i32
  %6 = and i32 %5, 15
  %7 = icmp eq i32 %6, 0
  br i1 %7, label %8, label %9

8:                                                ; preds = %4
  tail call void (ptr, ptr, ...) @g_string_append_printf(ptr noundef %3, ptr noundef nonnull @.str.116, i32 noundef %5) #14
  br label %9

9:                                                ; preds = %8, %4
  %10 = getelementptr inbounds nuw i8, ptr %0, i64 %indvars.iv
  %11 = load i8, ptr %10, align 1
  %12 = zext i8 %11 to i32
  tail call void (ptr, ptr, ...) @g_string_append_printf(ptr noundef %3, ptr noundef nonnull @.str.117, i32 noundef %12) #14
  %indvars.iv.next = add nuw nsw i64 %indvars.iv, 1
  %exitcond.not = icmp eq i64 %indvars.iv.next, %wide.trip.count
  br i1 %exitcond.not, label %13, label %4, !llvm.loop !26

13:                                               ; preds = %9
  %14 = getelementptr inbounds nuw i8, ptr %3, i64 8
  %15 = load i64, ptr %14, align 8
  %16 = add i64 %15, 1
  %17 = getelementptr inbounds nuw i8, ptr %3, i64 16
  %18 = load i64, ptr %17, align 8
  %19 = icmp ult i64 %16, %18
  br i1 %19, label %20, label %26

20:                                               ; preds = %13
  %21 = load ptr, ptr %3, align 8
  store i64 %16, ptr %14, align 8
  %22 = getelementptr inbounds nuw i8, ptr %21, i64 %15
  store i8 10, ptr %22, align 1
  %23 = load ptr, ptr %3, align 8
  %24 = load i64, ptr %14, align 8
  %25 = getelementptr inbounds nuw i8, ptr %23, i64 %24
  store i8 0, ptr %25, align 1
  br label %g_string_append_c_inline.exit

26:                                               ; preds = %13
  %27 = tail call ptr @g_string_insert_c(ptr noundef nonnull %3, i64 noundef -1, i8 noundef signext 10) #14
  br label %g_string_append_c_inline.exit

g_string_append_c_inline.exit:                    ; preds = %20, %26
  %28 = tail call ptr @g_string_free(ptr noundef nonnull %3, i32 noundef 0) #14
  ret ptr %28
}